; Function Attrs: mustprogress nounwind uwtable
define internal void @_ZN12_GLOBAL__N_127StmtProfilerWithoutPointers9VisitNameEN5clang15DeclarationNameEb(ptr noundef nonnull readonly align 8 captures(none) dereferenceable(32) %0, i64 %1, i1 noundef zeroext %2) unnamed_addr #0 align 2 {
  br i1 %2, label %4, label %17

4:                                                ; preds = %3
  %5 = getelementptr inbounds nuw i8, ptr %0, i64 8
  %6 = load ptr, ptr %5, align 8
  %7 = tail call noundef i64 @_ZNK4llvm15SmallVectorBaseIjE4sizeEv(ptr noundef nonnull align 8 dereferenceable(144) %6) #11
  %8 = add i64 %7, 1
  %9 = tail call noundef i64 @_ZNK4llvm15SmallVectorBaseIjE8capacityEv(ptr noundef nonnull align 8 dereferenceable(144) %6) #11
  %.not.i.i.i.i.i = icmp ugt i64 %8, %9
  br i1 %.not.i.i.i.i.i, label %10, label %_ZN4llvm16FoldingSetNodeID10AddBooleanEb.exit

10:                                               ; preds = %4
  %11 = getelementptr inbounds nuw i8, ptr %6, i64 16
  tail call void @_ZN4llvm15SmallVectorBaseIjE8grow_podEPvmm(ptr noundef nonnull align 8 dereferenceable(144) %6, ptr noundef nonnull %11, i64 noundef %8, i64 noundef 4) #11
  br label %_ZN4llvm16FoldingSetNodeID10AddBooleanEb.exit

_ZN4llvm16FoldingSetNodeID10AddBooleanEb.exit:    ; preds = %4, %10
  %12 = load ptr, ptr %6, align 8
  %13 = tail call noundef i64 @_ZNK4llvm15SmallVectorBaseIjE4sizeEv(ptr noundef nonnull align 8 dereferenceable(144) %6) #11
  %14 = getelementptr inbounds i32, ptr %12, i64 %13
  store i32 1, ptr %14, align 1
  %15 = tail call noundef i64 @_ZNK4llvm15SmallVectorBaseIjE4sizeEv(ptr noundef nonnull align 8 dereferenceable(144) %6) #11
  %16 = add i64 %15, 1
  tail call void @_ZN4llvm15SmallVectorBaseIjE8set_sizeEm(ptr noundef nonnull align 8 dereferenceable(144) %6, i64 noundef %16) #11
  br label %17

17:                                               ; preds = %_ZN4llvm16FoldingSetNodeID10AddBooleanEb.exit, %3
  %18 = getelementptr inbounds nuw i8, ptr %0, i64 24
  %19 = load ptr, ptr %18, align 8
  tail call void @_ZN5clang7ODRHash18AddDeclarationNameENS_15DeclarationNameEb(ptr noundef nonnull align 8 dereferenceable(320) %19, i64 %1, i1 noundef zeroext %2) #11
  ret void
}